(dp1
S'files'
p2
(dp3
S'BP___init__'
p4
(dp5
S'index'
p6
(dp7
S'html_filename'
p8
S'BP___init__.html'
p9
sS'name'
p10
S'BP\\__init__'
p11
sS'nums'
p12
ccopy_reg
_reconstructor
p13
(ccoverage.results
Numbers
p14
c__builtin__
object
p15
NtRp16
(dp17
S'n_files'
p18
I1
sS'n_branches'
p19
I0
sS'n_statements'
p20
I0
sS'n_excluded'
p21
I0
sS'n_partial_branches'
p22
I0
sS'n_missing'
p23
I0
sS'n_missing_branches'
p24
I0
sbssS'hash'
p25
S'\xca\xf5\x9f\x7f\x88\xdfa\x831|T\x1d\xbc}\xa5v'
p26
ssS'OMP_omp_QR'
p27
(dp28
g6
(dp29
g8
S'OMP_omp_QR.html'
p30
sg10
S'OMP\\omp_QR'
p31
sg12
g13
(g14
g15
NtRp32
(dp33
g18
I1
sg19
I0
sg20
I262
sg21
I0
sg22
I0
sg23
I262
sg24
I0
sbssg25
S'v\xb2\x08Q\xc9\xc6\x15+\xbcIEay\xef&v'
p34
ssS'BP_l1qec'
p35
(dp36
g6
(dp37
g8
S'BP_l1qec.html'
p38
sg10
S'BP\\l1qec'
p39
sg12
g13
(g14
g15
NtRp40
(dp41
g18
I1
sg19
I0
sg20
I218
sg21
I0
sg22
I0
sg23
I218
sg24
I0
sbssg25
S'\xb5bLN\xdf\xc3O\x03\xddR\xd9L\xfe;\xbee'
p42
ssS'ABS_ABSmixed'
p43
(dp44
g6
(dp45
g8
S'ABS_ABSmixed.html'
p46
sg10
S'ABS\\ABSmixed'
p47
sg12
g13
(g14
g15
NtRp48
(dp49
g18
I1
sg19
I0
sg20
I21
sg21
I0
sg22
I0
sg23
I21
sg24
I0
sbssg25
S'\xed/%\xae\x071\xb9O\x8c\xd44\xe9g\x9a\xb6|'
p50
ssS'tests_test_base'
p51
(dp52
g6
(dp53
S'html_filename'
p54
S'tests_test_base.html'
p55
sS'name'
p56
S'tests\\test_base'
p57
sS'nums'
p58
g13
(g14
g15
NtRp59
(dp60
g18
I1
sg19
I0
sg20
I86
sg21
I0
sg22
I0
sg23
I0
sg24
I0
sbssg25
S'\x18\xf3\x91?[\xa7\xfc\x9c\xc9\xa9\x9f6\xe1\x1a\xdb\x17'
p61
ssS'BP_l1eq_pd'
p62
(dp63
g6
(dp64
g8
S'BP_l1eq_pd.html'
p65
sg10
S'BP\\l1eq_pd'
p66
sg12
g13
(g14
g15
NtRp67
(dp68
g18
I1
sg19
I0
sg20
I134
sg21
I0
sg22
I0
sg23
I134
sg24
I0
sbssg25
S'jD\x9f\x1bL\x85\x02\x195\xbe\xc2\xd8\x943*i'
p69
ssS'SL0_EllipseProj'
p70
(dp71
g6
(dp72
g8
S'SL0_EllipseProj.html'
p73
sg10
S'SL0\\EllipseProj'
p74
sg12
g13
(g14
g15
NtRp75
(dp76
g18
I1
sg19
I0
sg20
I275
sg21
I0
sg22
I0
sg23
I275
sg24
I0
sbssg25
S'M\x8b%\xbe\xd2\x9f.\xbf\xa4\x81\x18+\x8d\x0e\xcb\x82'
p77
ssS'GAP_GAP'
p78
(dp79
g6
(dp80
g8
S'GAP_GAP.html'
p81
sg10
S'GAP\\GAP'
p82
sg12
g13
(g14
g15
NtRp83
(dp84
g18
I1
sg19
I0
sg20
I136
sg21
I0
sg22
I0
sg23
I136
sg24
I0
sbssg25
S'u\xc2\xa8^\xc8\x8chu\x02\x8c\xbfo\xb4e"\x16'
p85
ssS'SL0_SL0'
p86
(dp87
g6
(dp88
g8
S'SL0_SL0.html'
p89
sg10
S'SL0\\SL0'
p90
sg12
g13
(g14
g15
NtRp91
(dp92
g18
I1
sg19
I0
sg20
I25
sg21
I0
sg22
I0
sg23
I25
sg24
I0
sbssg25
S'\x89\x8c\xdd1\xfb\xf6\xfa\xe3}\x14\x07\xdd\x0f\x9f\x87Z'
p93
ssS'TST___init__'
p94
(dp95
g6
(dp96
g8
S'TST___init__.html'
p97
sg10
S'TST\\__init__'
p98
sg12
g13
(g14
g15
NtRp99
(dp100
g18
I1
sg19
I0
sg20
I0
sg21
I0
sg22
I0
sg23
I0
sg24
I0
sbssg25
S'\xca\xf5\x9f\x7f\x88\xdfa\x831|T\x1d\xbc}\xa5v'
p101
ssS'OMP___init__'
p102
(dp103
g6
(dp104
g8
S'OMP___init__.html'
p105
sg10
S'OMP\\__init__'
p106
sg12
g13
(g14
g15
NtRp107
(dp108
g18
I1
sg19
I0
sg20
I0
sg21
I0
sg22
I0
sg23
I0
sg24
I0
sbssg25
S'\xca\xf5\x9f\x7f\x88\xdfa\x831|T\x1d\xbc}\xa5v'
p109
ssS'NESTA_NESTA'
p110
(dp111
g6
(dp112
g8
S'NESTA_NESTA.html'
p113
sg10
S'NESTA\\NESTA'
p114
sg12
g13
(g14
g15
NtRp115
(dp116
g18
I1
sg19
I0
sg20
I394
sg21
I0
sg22
I0
sg23
I394
sg24
I0
sbssg25
S'\xd2\xb3\x07h\xdd\x02\x7f\xc4P\xbf\xe7\xcc\x97\x91\x97%'
p117
ssS'ABS_ABSlambda'
p118
(dp119
g6
(dp120
g8
S'ABS_ABSlambda.html'
p121
sg10
S'ABS\\ABSlambda'
p122
sg12
g13
(g14
g15
NtRp123
(dp124
g18
I1
sg19
I0
sg20
I49
sg21
I0
sg22
I0
sg23
I49
sg24
I0
sbssg25
S'\xbd\x11\xe9C\xfb\xd7-\x04\x0eZ\x02\xc6\xed\x12oQ'
p125
ssS'ABS_ABSexact'
p126
(dp127
g6
(dp128
g8
S'ABS_ABSexact.html'
p129
sg10
S'ABS\\ABSexact'
p130
sg12
g13
(g14
g15
NtRp131
(dp132
g18
I1
sg19
I0
sg20
I63
sg21
I0
sg22
I0
sg23
I63
sg24
I0
sbssg25
S'.|\x07\xea\xe4z\xd7\x9dR\x07KW\xaf\x8d7\xc7'
p133
ssS'base'
p134
(dp135
g6
(dp136
S'html_filename'
p137
S'base.html'
p138
sS'name'
p139
S'base'
p140
sS'nums'
p141
g13
(g14
g15
NtRp142
(dp143
g18
I1
sg19
I0
sg20
I6
sg21
I0
sg22
I0
sg23
I0
sg24
I0
sbssg25
S'\x02\xc0\xea\xc2\x98\xbeS=\xe7\xe1\x96\xa9\xe5\xd13\xf4'
p144
ssS'NESTA___init__'
p145
(dp146
g6
(dp147
g8
S'NESTA___init__.html'
p148
sg10
S'NESTA\\__init__'
p149
sg12
g13
(g14
g15
NtRp150
(dp151
g18
I1
sg19
I0
sg20
I0
sg21
I0
sg22
I0
sg23
I0
sg24
I0
sbssg25
S'\xca\xf5\x9f\x7f\x88\xdfa\x831|T\x1d\xbc}\xa5v'
p152
ssS'ABS___init__'
p153
(dp154
g6
(dp155
g8
S'ABS___init__.html'
p156
sg10
S'ABS\\__init__'
p157
sg12
g13
(g14
g15
NtRp158
(dp159
g18
I1
sg19
I0
sg20
I0
sg21
I0
sg22
I0
sg23
I0
sg24
I0
sbssg25
S'\xca\xf5\x9f\x7f\x88\xdfa\x831|T\x1d\xbc}\xa5v'
p160
ssS'GAP___init__'
p161
(dp162
g6
(dp163
g8
S'GAP___init__.html'
p164
sg10
S'GAP\\__init__'
p165
sg12
g13
(g14
g15
NtRp166
(dp167
g18
I1
sg19
I0
sg20
I0
sg21
I0
sg22
I0
sg23
I0
sg24
I0
sbssg25
S'\xca\xf5\x9f\x7f\x88\xdfa\x831|T\x1d\xbc}\xa5v'
p168
ssS'ABS_algos'
p169
(dp170
g6
(dp171
g8
S'ABS_algos.html'
p172
sg10
S'ABS\\algos'
p173
sg12
g13
(g14
g15
NtRp174
(dp175
g18
I1
sg19
I0
sg20
I76
sg21
I0
sg22
I0
sg23
I76
sg24
I0
sbssg25
S'R\xa9p\xfaA\xb5\xc4\x06\xb6\x82\x9c\xd1\xc9\xa1\xd1w'
p176
ssS'SL0___init__'
p177
(dp178
g6
(dp179
g8
S'SL0___init__.html'
p180
sg10
S'SL0\\__init__'
p181
sg12
g13
(g14
g15
NtRp182
(dp183
g18
I1
sg19
I0
sg20
I0
sg21
I0
sg22
I0
sg23
I0
sg24
I0
sbssg25
S'\xca\xf5\x9f\x7f\x88\xdfa\x831|T\x1d\xbc}\xa5v'
p184
ssS'BP_cvxopt_lp'
p185
(dp186
g6
(dp187
g8
S'BP_cvxopt_lp.html'
p188
sg10
S'BP\\cvxopt_lp'
p189
sg12
g13
(g14
g15
NtRp190
(dp191
g18
I1
sg19
I0
sg20
I21
sg21
I0
sg22
I0
sg23
I21
sg24
I0
sbssg25
S'\xe0\xe7c;\x94P\x8e\xa4\xfe\x19\xb9\x01\x19\x1b;\xaa'
p192
ssS'SL0_SL0_approx'
p193
(dp194
g6
(dp195
g8
S'SL0_SL0_approx.html'
p196
sg10
S'SL0\\SL0_approx'
p197
sg12
g13
(g14
g15
NtRp198
(dp199
g18
I1
sg19
I0
sg20
I220
sg21
I0
sg22
I0
sg23
I220
sg24
I0
sbssg25
S'\xeb\x02\xc0a\xd0gn\xbb\xbc\x11\x83\xca\xcd\xc4\x84\x80'
p200
ssS'__init__'
p201
(dp202
g6
(dp203
g8
S'__init__.html'
p204
sg10
g201
sg12
g13
(g14
g15
NtRp205
(dp206
g18
I1
sg19
I0
sg20
I0
sg21
I0
sg22
I0
sg23
I0
sg24
I0
sbssg25
S'\xca\xf5\x9f\x7f\x88\xdfa\x831|T\x1d\xbc}\xa5v'
p207
ssS'BP_l1qc'
p208
(dp209
g6
(dp210
g8
S'BP_l1qc.html'
p211
sg10
S'BP\\l1qc'
p212
sg12
g13
(g14
g15
NtRp213
(dp214
g18
I1
sg19
I0
sg20
I209
sg21
I0
sg22
I0
sg23
I209
sg24
I0
sbssg25
S'1\xf1\xaf:\x8f\x07A\xb7|\x01\xack\x8dou\xb0'
p215
ssS'TST_RecommendedTST'
p216
(dp217
g6
(dp218
g8
S'TST_RecommendedTST.html'
p219
sg10
S'TST\\RecommendedTST'
p220
sg12
g13
(g14
g15
NtRp221
(dp222
g18
I1
sg19
I0
sg20
I33
sg21
I0
sg22
I0
sg23
I33
sg24
I0
sbssg25
S'\x85I\x7f\xc8` \xa9\xf2\x1b\x90\t\xfa\x83\xf9#\x10'
p223
ssS'OMP_omp_sk_bugfix'
p224
(dp225
g6
(dp226
g8
S'OMP_omp_sk_bugfix.html'
p227
sg10
S'OMP\\omp_sk_bugfix'
p228
sg12
g13
(g14
g15
NtRp229
(dp230
g18
I1
sg19
I0
sg20
I189
sg21
I0
sg22
I0
sg23
I189
sg24
I0
sbssg25
S'+d4F\xe993\x85Zb\x86\x1c\xa3\x8e\x83='
p231
sssS'version'
p232
S'3.7.1'
p233
sS'settings'
p234
S"=\xc2,\xbb3Tr\xac\xd7\x9b\xda\xc9\xc4'2\x86"
p235
sS'format'
p236
I1
s.